target datalayout = "e-m:e-p270:32:32-p271:32:32-p272:64:64-i64:64-i128:128-f80:128-n8:16:32:64-S128"
target triple = "x86_64-pc-linux-gnu"

%"struct.pkpy::Dict" = type { ptr, i32, i32, i32, i32, i32, i32, ptr, ptr }

; Function Attrs: mustprogress nounwind uwtable
define void @_ZN4pkpy4DictC2EOS0_(ptr noundef nonnull align 8 dereferenceable(48) %0, ptr noundef nonnull align 8 dereferenceable(48) %1) unnamed_addr #4 align 2 {
  %3 = alloca ptr, align 8
  %4 = alloca ptr, align 8
  store ptr %0, ptr %3, align 8
  store ptr %1, ptr %4, align 8
  %5 = load ptr, ptr %3, align 8
  %6 = load ptr, ptr %4, align 8
  %7 = getelementptr inbounds %"struct.pkpy::Dict", ptr %6, i32 0, i32 0
  %8 = load ptr, ptr %7, align 8
  %9 = getelementptr inbounds %"struct.pkpy::Dict", ptr %5, i32 0, i32 0
  store ptr %8, ptr %9, align 8
  %10 = load ptr, ptr %4, align 8
  %11 = getelementptr inbounds %"struct.pkpy::Dict", ptr %10, i32 0, i32 1
  %12 = load i32, ptr %11, align 8
  %13 = getelementptr inbounds %"struct.pkpy::Dict", ptr %5, i32 0, i32 1
  store i32 %12, ptr %13, align 8
  %14 = load ptr, ptr %4, align 8
  %15 = getelementptr inbounds %"struct.pkpy::Dict", ptr %14, i32 0, i32 2
  %16 = load i32, ptr %15, align 4
  %17 = getelementptr inbounds %"struct.pkpy::Dict", ptr %5, i32 0, i32 2
  store i32 %16, ptr %17, align 4
  %18 = load ptr, ptr %4, align 8
  %19 = getelementptr inbounds %"struct.pkpy::Dict", ptr %18, i32 0, i32 3
  %20 = load i32, ptr %19, align 8
  %21 = getelementptr inbounds %"struct.pkpy::Dict", ptr %5, i32 0, i32 3
  store i32 %20, ptr %21, align 8
  %22 = load ptr, ptr %4, align 8
  %23 = getelementptr inbounds %"struct.pkpy::Dict", ptr %22, i32 0, i32 4
  %24 = load i32, ptr %23, align 4
  %25 = getelementptr inbounds %"struct.pkpy::Dict", ptr %5, i32 0, i32 4
  store i32 %24, ptr %25, align 4
  %26 = load ptr, ptr %4, align 8
  %27 = getelementptr inbounds %"struct.pkpy::Dict", ptr %26, i32 0, i32 5
  %28 = load i32, ptr %27, align 8
  %29 = getelementptr inbounds %"struct.pkpy::Dict", ptr %5, i32 0, i32 5
  store i32 %28, ptr %29, align 8
  %30 = load ptr, ptr %4, align 8
  %31 = getelementptr inbounds %"struct.pkpy::Dict", ptr %30, i32 0, i32 6
  %32 = load i32, ptr %31, align 4
  %33 = getelementptr inbounds %"struct.pkpy::Dict", ptr %5, i32 0, i32 6
  store i32 %32, ptr %33, align 4
  %34 = load ptr, ptr %4, align 8
  %35 = getelementptr inbounds %"struct.pkpy::Dict", ptr %34, i32 0, i32 7
  %36 = load ptr, ptr %35, align 8
  %37 = getelementptr inbounds %"struct.pkpy::Dict", ptr %5, i32 0, i32 7
  store ptr %36, ptr %37, align 8
  %38 = load ptr, ptr %4, align 8
  %39 = getelementptr inbounds %"struct.pkpy::Dict", ptr %38, i32 0, i32 8
  %40 = load ptr, ptr %39, align 8
  %41 = getelementptr inbounds %"struct.pkpy::Dict", ptr %5, i32 0, i32 8
  store ptr %40, ptr %41, align 8
  %42 = load ptr, ptr %4, align 8
  %43 = getelementptr inbounds %"struct.pkpy::Dict", ptr %42, i32 0, i32 7
  store ptr null, ptr %43, align 8
  %44 = load ptr, ptr %4, align 8
  %45 = getelementptr inbounds %"struct.pkpy::Dict", ptr %44, i32 0, i32 8
  store ptr null, ptr %45, align 8
  ret void
}