; Function Attrs: mustprogress nofree norecurse nosync nounwind willreturn memory(argmem: readwrite) uwtable
define void @_ZN4pkpy4DictC2EOS0_(ptr nocapture noundef nonnull writeonly align 8 dereferenceable(48) %0, ptr nocapture noundef nonnull align 8 dereferenceable(48) %1) unnamed_addr #5 align 2 {
  %3 = load ptr, ptr %1, align 8
  store ptr %3, ptr %0, align 8
  %4 = getelementptr inbounds i8, ptr %1, i64 8
  %5 = load i32, ptr %4, align 8
  %6 = getelementptr inbounds i8, ptr %0, i64 8
  store i32 %5, ptr %6, align 8
  %7 = getelementptr inbounds i8, ptr %1, i64 12
  %8 = load i32, ptr %7, align 4
  %9 = getelementptr inbounds i8, ptr %0, i64 12
  store i32 %8, ptr %9, align 4
  %10 = getelementptr inbounds i8, ptr %1, i64 16
  %11 = load i32, ptr %10, align 8
  %12 = getelementptr inbounds i8, ptr %0, i64 16
  store i32 %11, ptr %12, align 8
  %13 = getelementptr inbounds i8, ptr %1, i64 20
  %14 = load i32, ptr %13, align 4
  %15 = getelementptr inbounds i8, ptr %0, i64 20
  store i32 %14, ptr %15, align 4
  %16 = getelementptr inbounds i8, ptr %1, i64 24
  %17 = load i32, ptr %16, align 8
  %18 = getelementptr inbounds i8, ptr %0, i64 24
  store i32 %17, ptr %18, align 8
  %19 = getelementptr inbounds i8, ptr %1, i64 28
  %20 = load i32, ptr %19, align 4
  %21 = getelementptr inbounds i8, ptr %0, i64 28
  store i32 %20, ptr %21, align 4
  %22 = getelementptr inbounds i8, ptr %1, i64 32
  %23 = load ptr, ptr %22, align 8
  %24 = getelementptr inbounds i8, ptr %0, i64 32
  store ptr %23, ptr %24, align 8
  %25 = getelementptr inbounds i8, ptr %1, i64 40
  %26 = load ptr, ptr %25, align 8
  %27 = getelementptr inbounds i8, ptr %0, i64 40
  store ptr %26, ptr %27, align 8
  tail call void @llvm.memset.p0.i64(ptr noundef nonnull align 8 dereferenceable(16) %22, i8 0, i64 16, i1 false)
  ret void
}